; Function Attrs: mustprogress nofree norecurse nosync nounwind willreturn memory(readwrite, inaccessiblemem: none) uwtable
define internal noundef i32 @cvDenseInit(ptr noundef %0) #2 {
  %2 = getelementptr inbounds nuw i8, ptr %0, i64 1696
  %3 = load ptr, ptr %2, align 8, !tbaa !40
  %4 = getelementptr inbounds nuw i8, ptr %3, i64 104
  %5 = getelementptr inbounds nuw i8, ptr %3, i64 40
  tail call void @llvm.memset.p0.i64(ptr noundef nonnull align 8 dereferenceable(24) %4, i8 0, i64 24, i1 false)
  %6 = load i32, ptr %5, align 8, !tbaa !31
  %.not = icmp eq i32 %6, 0
  br i1 %.not, label %9, label %7

7:                                                ; preds = %1
  %8 = getelementptr inbounds nuw i8, ptr %3, i64 48
  store ptr @cvDlsDenseDQJac, ptr %8, align 8, !tbaa !32
  br label %12

9:                                                ; preds = %1
  %10 = getelementptr inbounds nuw i8, ptr %0, i64 16
  %11 = load ptr, ptr %10, align 8, !tbaa !41
  br label %12

12:                                               ; preds = %9, %7
  %.sink = phi ptr [ %11, %9 ], [ %0, %7 ]
  %13 = getelementptr inbounds nuw i8, ptr %3, i64 64
  store ptr %.sink, ptr %13, align 8, !tbaa !33
  %14 = getelementptr inbounds nuw i8, ptr %3, i64 128
  store i64 0, ptr %14, align 8, !tbaa !34
  ret i32 0
}